target datalayout = "e-m:e-p270:32:32-p271:32:32-p272:64:64-i64:64-i128:128-f80:128-n8:16:32:64-S128"
target triple = "x86_64-unknown-linux-gnu"

%struct.Node = type { i32, ptr, ptr, ptr, ptr, ptr, ptr, ptr, ptr, ptr, ptr, ptr, ptr, ptr, ptr, ptr, ptr, i8, ptr, ptr, ptr, ptr, ptr, ptr, i64, i64, ptr, ptr, ptr, ptr, ptr, ptr, ptr, i64, x86_fp80 }
%struct.Token = type { i32, ptr, i64, x86_fp80, ptr, i32, ptr, ptr, ptr, ptr, i32, i32, i8, i8, ptr, ptr }

@.str.99 = private unnamed_addr constant [2 x i8] c";\00", align 1

; Function Attrs: nounwind uwtable
define internal ptr @new_node(i32 noundef %kind, ptr noundef %tok) #0 {
entry:
  %kind.addr = alloca i32, align 4
  %tok.addr = alloca ptr, align 8
  %node = alloca ptr, align 8
  store i32 %kind, ptr %kind.addr, align 4
  store ptr %tok, ptr %tok.addr, align 8
  %call = call noalias ptr @calloc(i64 noundef 1, i64 noundef 288) #8
  store ptr %call, ptr %node, align 8
  %0 = load i32, ptr %kind.addr, align 4
  %1 = load ptr, ptr %node, align 8
  %kind1 = getelementptr inbounds %struct.Node, ptr %1, i32 0, i32 0
  store i32 %0, ptr %kind1, align 16
  %2 = load ptr, ptr %tok.addr, align 8
  %3 = load ptr, ptr %node, align 8
  %tok2 = getelementptr inbounds %struct.Node, ptr %3, i32 0, i32 3
  store ptr %2, ptr %tok2, align 8
  %4 = load ptr, ptr %node, align 8
  ret ptr %4
}

; Function Attrs: nounwind uwtable
define internal ptr @expr_stmt(ptr noundef %rest, ptr noundef %tok) #0 {
entry:
  %retval = alloca ptr, align 8
  %rest.addr = alloca ptr, align 8
  %tok.addr = alloca ptr, align 8
  %node = alloca ptr, align 8
  store ptr %rest, ptr %rest.addr, align 8
  store ptr %tok, ptr %tok.addr, align 8
  %0 = load ptr, ptr %tok.addr, align 8
  %call = call zeroext i1 @equal(ptr noundef %0, ptr noundef @.str.99)
  br i1 %call, label %if.then, label %if.end

if.then:                                          ; preds = %entry
  %1 = load ptr, ptr %tok.addr, align 8
  %next = getelementptr inbounds %struct.Token, ptr %1, i32 0, i32 1
  %2 = load ptr, ptr %next, align 8
  %3 = load ptr, ptr %rest.addr, align 8
  store ptr %2, ptr %3, align 8
  %4 = load ptr, ptr %tok.addr, align 8
  %call1 = call ptr @new_node(i32 noundef 32, ptr noundef %4)
  store ptr %call1, ptr %retval, align 8
  br label %return

if.end:                                           ; preds = %entry
  %5 = load ptr, ptr %tok.addr, align 8
  %call2 = call ptr @new_node(i32 noundef 38, ptr noundef %5)
  store ptr %call2, ptr %node, align 8
  %6 = load ptr, ptr %tok.addr, align 8
  %call3 = call ptr @expr(ptr noundef %tok.addr, ptr noundef %6)
  %7 = load ptr, ptr %node, align 8
  %lhs = getelementptr inbounds %struct.Node, ptr %7, i32 0, i32 4
  store ptr %call3, ptr %lhs, align 16
  %8 = load ptr, ptr %tok.addr, align 8
  %call4 = call ptr @skip(ptr noundef %8, ptr noundef @.str.99)
  %9 = load ptr, ptr %rest.addr, align 8
  store ptr %call4, ptr %9, align 8
  %10 = load ptr, ptr %node, align 8
  store ptr %10, ptr %retval, align 8
  br label %return

return:                                           ; preds = %if.end, %if.then
  %11 = load ptr, ptr %retval, align 8
  ret ptr %11
}