; Function Attrs: nounwind uwtable
define internal fastcc noundef ptr @expr_stmt(ptr nocapture noundef writeonly %rest, ptr noundef %tok) unnamed_addr #0 {
entry:
  %tok.addr = alloca ptr, align 8
  store ptr %tok, ptr %tok.addr, align 8
  %call = tail call zeroext i1 @equal(ptr noundef %tok, ptr noundef nonnull @.str.99) #13
  br i1 %call, label %if.then, label %if.end

if.then:                                          ; preds = %entry
  %next = getelementptr inbounds %struct.Token, ptr %tok, i64 0, i32 1
  %0 = load ptr, ptr %next, align 8
  %call.i = tail call noalias noundef dereferenceable_or_null(288) ptr @calloc(i64 noundef 1, i64 noundef 288) #14
  store i32 32, ptr %call.i, align 16
  %tok2.i = getelementptr inbounds %struct.Node, ptr %call.i, i64 0, i32 3
  store ptr %tok, ptr %tok2.i, align 8
  br label %return

if.end:                                           ; preds = %entry
  %call.i3 = tail call noalias noundef dereferenceable_or_null(288) ptr @calloc(i64 noundef 1, i64 noundef 288) #14
  store i32 38, ptr %call.i3, align 16
  %tok2.i4 = getelementptr inbounds %struct.Node, ptr %call.i3, i64 0, i32 3
  store ptr %tok, ptr %tok2.i4, align 8
  %call3 = call fastcc ptr @expr(ptr noundef nonnull %tok.addr, ptr noundef %tok)
  %lhs = getelementptr inbounds %struct.Node, ptr %call.i3, i64 0, i32 4
  store ptr %call3, ptr %lhs, align 16
  %1 = load ptr, ptr %tok.addr, align 8
  %call4 = tail call ptr @skip(ptr noundef %1, ptr noundef nonnull @.str.99) #13
  br label %return

return:                                           ; preds = %if.end, %if.then
  %call4.sink = phi ptr [ %0, %if.then ], [ %call4, %if.end ]
  %retval.0 = phi ptr [ %call.i, %if.then ], [ %call.i3, %if.end ]
  store ptr %call4.sink, ptr %rest, align 8
  ret ptr %retval.0
}